; Function Attrs: mustprogress uwtable
define void @_ZN9BoolValue3setERK5Value(ptr nocapture noundef nonnull writeonly align 8 dereferenceable(9) %0, ptr noundef nonnull align 8 dereferenceable(8) %1) unnamed_addr #2 align 2 {
  %3 = load ptr, ptr %1, align 8
  %4 = getelementptr inbounds i8, ptr %3, i64 16
  %5 = load ptr, ptr %4, align 8
  %6 = tail call noundef zeroext i1 %5(ptr noundef nonnull align 8 dereferenceable(8) %1)
  %7 = getelementptr inbounds i8, ptr %0, i64 8
  %8 = zext i1 %6 to i8
  store i8 %8, ptr %7, align 8
  ret void
}